target datalayout = "e-m:e-p270:32:32-p271:32:32-p272:64:64-i64:64-i128:128-f80:128-n8:16:32:64-S128"
target triple = "x86_64-pc-linux-gnu"

; Function Attrs: mustprogress nounwind uwtable
define internal noundef zeroext i1 @_ZN12_GLOBAL__N_120llvm_fenv_testexceptEv() #0 {
  %1 = alloca i1, align 1
  %2 = alloca i32, align 4
  %3 = call ptr @__errno_location() #17
  %4 = load i32, ptr %3, align 4
  store i32 %4, ptr %2, align 4
  %5 = load i32, ptr %2, align 4
  %6 = icmp eq i32 %5, 34
  br i1 %6, label %10, label %7

7:                                                ; preds = %0
  %8 = load i32, ptr %2, align 4
  %9 = icmp eq i32 %8, 33
  br i1 %9, label %10, label %11

10:                                               ; preds = %7, %0
  store i1 true, ptr %1, align 1
  br label %16

11:                                               ; preds = %7
  %12 = call i32 @fetestexcept(i32 noundef 29) #13
  %13 = icmp ne i32 %12, 0
  br i1 %13, label %14, label %15

14:                                               ; preds = %11
  store i1 true, ptr %1, align 1
  br label %16

15:                                               ; preds = %11
  store i1 false, ptr %1, align 1
  br label %16

16:                                               ; preds = %15, %14, %10
  %17 = load i1, ptr %1, align 1
  ret i1 %17
}

; Function Attrs: mustprogress nounwind uwtable
define internal void @_ZN12_GLOBAL__N_121llvm_fenv_clearexceptEv() #0 {
  %1 = call i32 @feclearexcept(i32 noundef 61) #13
  %2 = call ptr @__errno_location() #17
  store i32 0, ptr %2, align 4
  ret void
}

; Function Attrs: mustprogress nounwind uwtable
define internal noundef ptr @_ZN12_GLOBAL__N_120ConstantFoldBinaryFPEPFdddERKN4llvm7APFloatES5_PNS2_4TypeE(ptr noundef %0, ptr noundef nonnull align 8 dereferenceable(32) %1, ptr noundef nonnull align 8 dereferenceable(32) %2, ptr noundef %3) #0 {
  %5 = alloca ptr, align 8
  %6 = alloca ptr, align 8
  %7 = alloca ptr, align 8
  %8 = alloca ptr, align 8
  %9 = alloca ptr, align 8
  %10 = alloca double, align 8
  store ptr %0, ptr %6, align 8
  store ptr %1, ptr %7, align 8
  store ptr %2, ptr %8, align 8
  store ptr %3, ptr %9, align 8
  call void @_ZN12_GLOBAL__N_121llvm_fenv_clearexceptEv()
  %11 = load ptr, ptr %6, align 8
  %12 = load ptr, ptr %7, align 8
  %13 = call noundef double @_ZNK4llvm7APFloat15convertToDoubleEv(ptr noundef nonnull align 8 dereferenceable(32) %12)
  %14 = load ptr, ptr %8, align 8
  %15 = call noundef double @_ZNK4llvm7APFloat15convertToDoubleEv(ptr noundef nonnull align 8 dereferenceable(32) %14)
  %16 = call noundef double %11(double noundef %13, double noundef %15)
  store double %16, ptr %10, align 8
  %17 = call noundef zeroext i1 @_ZN12_GLOBAL__N_120llvm_fenv_testexceptEv()
  br i1 %17, label %18, label %19

18:                                               ; preds = %4
  call void @_ZN12_GLOBAL__N_121llvm_fenv_clearexceptEv()
  store ptr null, ptr %5, align 8
  br label %23

19:                                               ; preds = %4
  %20 = load double, ptr %10, align 8
  %21 = load ptr, ptr %9, align 8
  %22 = call noundef ptr @_ZN12_GLOBAL__N_122GetConstantFoldFPValueEdPN4llvm4TypeE(double noundef %20, ptr noundef %21)
  store ptr %22, ptr %5, align 8
  br label %23

23:                                               ; preds = %19, %18
  %24 = load ptr, ptr %5, align 8
  ret ptr %24
}