; Function Attrs: mustprogress nounwind uwtable
define internal fastcc noundef ptr @_ZN12_GLOBAL__N_120ConstantFoldBinaryFPEPFdddERKN4llvm7APFloatES5_PNS2_4TypeE(ptr noundef readonly captures(none) %0, ptr noundef nonnull align 8 dereferenceable(32) %1, ptr noundef nonnull align 8 dereferenceable(32) %2, ptr noundef %3) unnamed_addr #0 {
  %5 = tail call i32 @feclearexcept(i32 noundef 61) #17
  %6 = tail call ptr @__errno_location() #20
  store i32 0, ptr %6, align 4
  %7 = tail call noundef double @_ZNK4llvm7APFloat15convertToDoubleEv(ptr noundef nonnull align 8 dereferenceable(32) %1) #17
  %8 = tail call noundef double @_ZNK4llvm7APFloat15convertToDoubleEv(ptr noundef nonnull align 8 dereferenceable(32) %2) #17
  %9 = tail call noundef double %0(double noundef %7, double noundef %8) #17, !callees !114
  %10 = load i32, ptr %6, align 4
  %11 = add i32 %10, -33
  %or.cond.i = icmp ult i32 %11, 2
  br i1 %or.cond.i, label %_ZN12_GLOBAL__N_120llvm_fenv_testexceptEv.exit.thread, label %_ZN12_GLOBAL__N_120llvm_fenv_testexceptEv.exit

_ZN12_GLOBAL__N_120llvm_fenv_testexceptEv.exit:   ; preds = %4
  %12 = tail call i32 @fetestexcept(i32 noundef 29) #17
  %.not.i.not = icmp eq i32 %12, 0
  br i1 %.not.i.not, label %14, label %_ZN12_GLOBAL__N_120llvm_fenv_testexceptEv.exit.thread

_ZN12_GLOBAL__N_120llvm_fenv_testexceptEv.exit.thread: ; preds = %4, %_ZN12_GLOBAL__N_120llvm_fenv_testexceptEv.exit
  %13 = tail call i32 @feclearexcept(i32 noundef 61) #17
  store i32 0, ptr %6, align 4
  br label %16

14:                                               ; preds = %_ZN12_GLOBAL__N_120llvm_fenv_testexceptEv.exit
  %15 = tail call fastcc noundef ptr @_ZN12_GLOBAL__N_122GetConstantFoldFPValueEdPN4llvm4TypeE(double noundef %9, ptr noundef %3)
  br label %16

16:                                               ; preds = %14, %_ZN12_GLOBAL__N_120llvm_fenv_testexceptEv.exit.thread
  %.0 = phi ptr [ null, %_ZN12_GLOBAL__N_120llvm_fenv_testexceptEv.exit.thread ], [ %15, %14 ]
  ret ptr %.0
}